target datalayout = "e-m:e-p270:32:32-p271:32:32-p272:64:64-i64:64-i128:128-f80:128-n8:16:32:64-S128"
target triple = "x86_64-pc-linux-gnu"

%struct.md5_state_s = type { [2 x i32], [4 x i32], [64 x i8] }

@rb_Digest_MD5_Finish.pad = internal constant <{ i8, [63 x i8] }> <{ i8 -128, [63 x i8] zeroinitializer }>, align 16

; Function Attrs: nounwind sspstrong uwtable
define i32 @rb_Digest_MD5_Finish(ptr noundef %0, ptr noundef %1) #0 {
  %3 = alloca ptr, align 8
  %4 = alloca ptr, align 8
  %5 = alloca [8 x i8], align 1
  %6 = alloca i64, align 8
  store ptr %0, ptr %3, align 8, !tbaa !6
  store ptr %1, ptr %4, align 8, !tbaa !13
  call void @llvm.lifetime.start.p0(i64 8, ptr %5) #5
  call void @llvm.lifetime.start.p0(i64 8, ptr %6) #5
  store i64 0, ptr %6, align 8, !tbaa !15
  br label %7

7:                                                ; preds = %25, %2
  %8 = load i64, ptr %6, align 8, !tbaa !15
  %9 = icmp ult i64 %8, 8
  br i1 %9, label %10, label %28

10:                                               ; preds = %7
  %11 = load ptr, ptr %3, align 8, !tbaa !6
  %12 = getelementptr inbounds nuw %struct.md5_state_s, ptr %11, i32 0, i32 0
  %13 = load i64, ptr %6, align 8, !tbaa !15
  %14 = lshr i64 %13, 2
  %15 = getelementptr inbounds nuw [2 x i32], ptr %12, i64 0, i64 %14
  %16 = load i32, ptr %15, align 4, !tbaa !11
  %17 = load i64, ptr %6, align 8, !tbaa !15
  %18 = and i64 %17, 3
  %19 = shl i64 %18, 3
  %20 = trunc i64 %19 to i32
  %21 = lshr i32 %16, %20
  %22 = trunc i32 %21 to i8
  %23 = load i64, ptr %6, align 8, !tbaa !15
  %24 = getelementptr inbounds nuw [8 x i8], ptr %5, i64 0, i64 %23
  store i8 %22, ptr %24, align 1, !tbaa !22
  br label %25

25:                                               ; preds = %10
  %26 = load i64, ptr %6, align 8, !tbaa !15
  %27 = add i64 %26, 1
  store i64 %27, ptr %6, align 8, !tbaa !15
  br label %7, !llvm.loop !23

28:                                               ; preds = %7
  %29 = load ptr, ptr %3, align 8, !tbaa !6
  %30 = load ptr, ptr %3, align 8, !tbaa !6
  %31 = getelementptr inbounds nuw %struct.md5_state_s, ptr %30, i32 0, i32 0
  %32 = getelementptr inbounds [2 x i32], ptr %31, i64 0, i64 0
  %33 = load i32, ptr %32, align 4, !tbaa !11
  %34 = lshr i32 %33, 3
  %35 = sub i32 55, %34
  %36 = and i32 %35, 63
  %37 = add i32 %36, 1
  %38 = zext i32 %37 to i64
  call void @rb_Digest_MD5_Update(ptr noundef %29, ptr noundef @rb_Digest_MD5_Finish.pad, i64 noundef %38)
  %39 = load ptr, ptr %3, align 8, !tbaa !6
  %40 = getelementptr inbounds [8 x i8], ptr %5, i64 0, i64 0
  call void @rb_Digest_MD5_Update(ptr noundef %39, ptr noundef %40, i64 noundef 8)
  store i64 0, ptr %6, align 8, !tbaa !15
  br label %41

41:                                               ; preds = %60, %28
  %42 = load i64, ptr %6, align 8, !tbaa !15
  %43 = icmp ult i64 %42, 16
  br i1 %43, label %44, label %63

44:                                               ; preds = %41
  %45 = load ptr, ptr %3, align 8, !tbaa !6
  %46 = getelementptr inbounds nuw %struct.md5_state_s, ptr %45, i32 0, i32 1
  %47 = load i64, ptr %6, align 8, !tbaa !15
  %48 = lshr i64 %47, 2
  %49 = getelementptr inbounds nuw [4 x i32], ptr %46, i64 0, i64 %48
  %50 = load i32, ptr %49, align 4, !tbaa !11
  %51 = load i64, ptr %6, align 8, !tbaa !15
  %52 = and i64 %51, 3
  %53 = shl i64 %52, 3
  %54 = trunc i64 %53 to i32
  %55 = lshr i32 %50, %54
  %56 = trunc i32 %55 to i8
  %57 = load ptr, ptr %4, align 8, !tbaa !13
  %58 = load i64, ptr %6, align 8, !tbaa !15
  %59 = getelementptr inbounds nuw i8, ptr %57, i64 %58
  store i8 %56, ptr %59, align 1, !tbaa !22
  br label %60

60:                                               ; preds = %44
  %61 = load i64, ptr %6, align 8, !tbaa !15
  %62 = add i64 %61, 1
  store i64 %62, ptr %6, align 8, !tbaa !15
  br label %41, !llvm.loop !24

63:                                               ; preds = %41
  call void @llvm.lifetime.end.p0(i64 8, ptr %6) #5
  call void @llvm.lifetime.end.p0(i64 8, ptr %5) #5
  ret i32 1
}