; Function Attrs: nofree nounwind sspstrong memory(read, argmem: readwrite, inaccessiblemem: none) uwtable
define noundef i32 @rb_Digest_MD5_Finish(ptr noundef %0, ptr noundef writeonly captures(none) %1) local_unnamed_addr #2 {
  %3 = alloca [8 x i8], align 1
  call void @llvm.lifetime.start.p0(i64 8, ptr nonnull %3) #7
  br label %4

4:                                                ; preds = %2, %4
  %.015 = phi i64 [ 0, %2 ], [ %13, %4 ]
  %5 = lshr i64 %.015, 2
  %6 = getelementptr inbounds nuw [2 x i32], ptr %0, i64 0, i64 %5
  %7 = load i32, ptr %6, align 4, !tbaa !6
  %.0.tr = trunc nuw i64 %.015 to i32
  %8 = shl nuw nsw i32 %.0.tr, 3
  %9 = and i32 %8, 24
  %10 = lshr i32 %7, %9
  %11 = trunc i32 %10 to i8
  %12 = getelementptr inbounds nuw [8 x i8], ptr %3, i64 0, i64 %.015
  store i8 %11, ptr %12, align 1, !tbaa !12
  %13 = add nuw nsw i64 %.015, 1
  %exitcond.not = icmp eq i64 %13, 8
  br i1 %exitcond.not, label %14, label %4, !llvm.loop !13

14:                                               ; preds = %4
  %15 = load i32, ptr %0, align 4, !tbaa !6
  %16 = lshr i32 %15, 3
  %17 = sub nsw i32 55, %16
  %18 = and i32 %17, 63
  %19 = add nuw nsw i32 %18, 1
  %20 = zext nneg i32 %19 to i64
  tail call void @rb_Digest_MD5_Update(ptr noundef nonnull %0, ptr noundef nonnull @rb_Digest_MD5_Finish.pad, i64 noundef %20)
  call void @rb_Digest_MD5_Update(ptr noundef nonnull %0, ptr noundef nonnull %3, i64 noundef 8)
  %21 = getelementptr inbounds nuw i8, ptr %0, i64 8
  br label %22

22:                                               ; preds = %14, %22
  %.116 = phi i64 [ 0, %14 ], [ %31, %22 ]
  %23 = lshr i64 %.116, 2
  %24 = getelementptr inbounds nuw [4 x i32], ptr %21, i64 0, i64 %23
  %25 = load i32, ptr %24, align 4, !tbaa !6
  %.1.tr = trunc nuw i64 %.116 to i32
  %26 = shl nuw nsw i32 %.1.tr, 3
  %27 = and i32 %26, 24
  %28 = lshr i32 %25, %27
  %29 = trunc i32 %28 to i8
  %30 = getelementptr inbounds nuw i8, ptr %1, i64 %.116
  store i8 %29, ptr %30, align 1, !tbaa !12
  %31 = add nuw nsw i64 %.116, 1
  %exitcond17.not = icmp eq i64 %31, 16
  br i1 %exitcond17.not, label %32, label %22, !llvm.loop !14

32:                                               ; preds = %22
  call void @llvm.lifetime.end.p0(i64 8, ptr nonnull %3) #7
  ret i32 1
}